target datalayout = "e-m:e-p270:32:32-p271:32:32-p272:64:64-i64:64-i128:128-f80:128-n8:16:32:64-S128"
target triple = "x86_64-pc-linux-gnu"

%struct.AVFilterContext = type { ptr, ptr, ptr, ptr, ptr, i32, ptr, ptr, i32, ptr, ptr, i32, i32, ptr, ptr, ptr, ptr, i32, ptr, i32, i32 }
%struct.SilenceDetectContext = type { ptr, double, i64, i32, i32, i32, ptr, ptr, i64, i32, %struct.AVRational, ptr }
%struct.AVRational = type { i32, i32 }
%struct.AVFilterLink = type { ptr, ptr, ptr, ptr, i32, i32, i32, i32, %struct.AVRational, i32, i32, i32, %struct.AVChannelLayout, %struct.AVRational, ptr, i32, %struct.AVFilterFormatsConfig, %struct.AVFilterFormatsConfig }
%struct.AVChannelLayout = type { i32, i32, %union.anon.1, ptr }
%union.anon.1 = type { i64 }
%struct.AVFilterFormatsConfig = type { ptr, ptr, ptr, ptr, ptr }
%struct.AVFrame = type { [8 x ptr], [8 x i32], ptr, i32, i32, i32, i32, i32, %struct.AVRational, i64, i64, %struct.AVRational, i32, ptr, i32, i32, [8 x ptr], ptr, i32, ptr, i32, i32, i32, i32, i32, i32, i32, i64, ptr, i32, ptr, ptr, i64, i64, i64, i64, ptr, %struct.AVChannelLayout, i64 }

; Function Attrs: nounwind uwtable
define internal i32 @filter_frame(ptr noundef %0, ptr noundef %1) #1 {
  %3 = alloca ptr, align 8
  %4 = alloca ptr, align 8
  %5 = alloca ptr, align 8
  %6 = alloca i32, align 4
  %7 = alloca i32, align 4
  %8 = alloca i32, align 4
  %9 = alloca i64, align 8
  %10 = alloca i32, align 4
  %11 = alloca %struct.AVRational, align 4
  store ptr %0, ptr %3, align 8, !tbaa !35
  store ptr %1, ptr %4, align 8, !tbaa !37
  call void @llvm.lifetime.start.p0(i64 8, ptr %5) #10
  %12 = load ptr, ptr %3, align 8, !tbaa !35
  %13 = getelementptr inbounds nuw %struct.AVFilterLink, ptr %12, i32 0, i32 2
  %14 = load ptr, ptr %13, align 8, !tbaa !39
  %15 = getelementptr inbounds nuw %struct.AVFilterContext, ptr %14, i32 0, i32 9
  %16 = load ptr, ptr %15, align 8, !tbaa !9
  store ptr %16, ptr %5, align 8, !tbaa !22
  call void @llvm.lifetime.start.p0(i64 4, ptr %6) #10
  %17 = load ptr, ptr %3, align 8, !tbaa !35
  %18 = getelementptr inbounds nuw %struct.AVFilterLink, ptr %17, i32 0, i32 12
  %19 = getelementptr inbounds nuw %struct.AVChannelLayout, ptr %18, i32 0, i32 1
  %20 = load i32, ptr %19, align 4, !tbaa !46
  store i32 %20, ptr %6, align 4, !tbaa !24
  call void @llvm.lifetime.start.p0(i64 4, ptr %7) #10
  %21 = load ptr, ptr %3, align 8, !tbaa !35
  %22 = getelementptr inbounds nuw %struct.AVFilterLink, ptr %21, i32 0, i32 11
  %23 = load i32, ptr %22, align 8, !tbaa !47
  store i32 %23, ptr %7, align 4, !tbaa !24
  call void @llvm.lifetime.start.p0(i64 4, ptr %8) #10
  %24 = load ptr, ptr %4, align 8, !tbaa !37
  %25 = getelementptr inbounds nuw %struct.AVFrame, ptr %24, i32 0, i32 5
  %26 = load i32, ptr %25, align 8, !tbaa !48
  %27 = load i32, ptr %6, align 4, !tbaa !24
  %28 = mul nsw i32 %26, %27
  store i32 %28, ptr %8, align 4, !tbaa !24
  call void @llvm.lifetime.start.p0(i64 8, ptr %9) #10
  %29 = load ptr, ptr %5, align 8, !tbaa !22
  %30 = getelementptr inbounds nuw %struct.SilenceDetectContext, ptr %29, i32 0, i32 2
  %31 = load i64, ptr %30, align 8, !tbaa !53
  %32 = load ptr, ptr %5, align 8, !tbaa !22
  %33 = getelementptr inbounds nuw %struct.SilenceDetectContext, ptr %32, i32 0, i32 3
  %34 = load i32, ptr %33, align 8, !tbaa !54
  %35 = icmp ne i32 %34, 0
  br i1 %35, label %36, label %37

36:                                               ; preds = %2
  br label %39

37:                                               ; preds = %2
  %38 = load i32, ptr %6, align 4, !tbaa !24
  br label %39

39:                                               ; preds = %37, %36
  %40 = phi i32 [ 1, %36 ], [ %38, %37 ]
  %41 = sext i32 %40 to i64
  %42 = mul nsw i64 %31, %41
  store i64 %42, ptr %9, align 8, !tbaa !32
  call void @llvm.lifetime.start.p0(i64 4, ptr %10) #10
  %43 = load ptr, ptr %5, align 8, !tbaa !22
  %44 = getelementptr inbounds nuw %struct.SilenceDetectContext, ptr %43, i32 0, i32 9
  %45 = load i32, ptr %44, align 8, !tbaa !55
  %46 = icmp ne i32 %45, 0
  br i1 %46, label %47, label %86

47:                                               ; preds = %39
  %48 = load ptr, ptr %5, align 8, !tbaa !22
  %49 = getelementptr inbounds nuw %struct.SilenceDetectContext, ptr %48, i32 0, i32 9
  %50 = load i32, ptr %49, align 8, !tbaa !55
  %51 = load i32, ptr %7, align 4, !tbaa !24
  %52 = icmp ne i32 %50, %51
  br i1 %52, label %53, label %86

53:                                               ; preds = %47
  store i32 0, ptr %10, align 4, !tbaa !24
  br label %54

54:                                               ; preds = %82, %53
  %55 = load i32, ptr %10, align 4, !tbaa !24
  %56 = load ptr, ptr %5, align 8, !tbaa !22
  %57 = getelementptr inbounds nuw %struct.SilenceDetectContext, ptr %56, i32 0, i32 5
  %58 = load i32, ptr %57, align 8, !tbaa !25
  %59 = icmp slt i32 %55, %58
  br i1 %59, label %60, label %85

60:                                               ; preds = %54
  %61 = load i32, ptr %7, align 4, !tbaa !24
  %62 = sext i32 %61 to i64
  %63 = load ptr, ptr %5, align 8, !tbaa !22
  %64 = getelementptr inbounds nuw %struct.SilenceDetectContext, ptr %63, i32 0, i32 6
  %65 = load ptr, ptr %64, align 8, !tbaa !56
  %66 = load i32, ptr %10, align 4, !tbaa !24
  %67 = sext i32 %66 to i64
  %68 = getelementptr inbounds i64, ptr %65, i64 %67
  %69 = load i64, ptr %68, align 8, !tbaa !32
  %70 = mul nsw i64 %62, %69
  %71 = load ptr, ptr %5, align 8, !tbaa !22
  %72 = getelementptr inbounds nuw %struct.SilenceDetectContext, ptr %71, i32 0, i32 9
  %73 = load i32, ptr %72, align 8, !tbaa !55
  %74 = sext i32 %73 to i64
  %75 = sdiv i64 %70, %74
  %76 = load ptr, ptr %5, align 8, !tbaa !22
  %77 = getelementptr inbounds nuw %struct.SilenceDetectContext, ptr %76, i32 0, i32 6
  %78 = load ptr, ptr %77, align 8, !tbaa !56
  %79 = load i32, ptr %10, align 4, !tbaa !24
  %80 = sext i32 %79 to i64
  %81 = getelementptr inbounds i64, ptr %78, i64 %80
  store i64 %75, ptr %81, align 8, !tbaa !32
  br label %82

82:                                               ; preds = %60
  %83 = load i32, ptr %10, align 4, !tbaa !24
  %84 = add nsw i32 %83, 1
  store i32 %84, ptr %10, align 4, !tbaa !24
  br label %54, !llvm.loop !57

85:                                               ; preds = %54
  br label %86

86:                                               ; preds = %85, %47, %39
  %87 = load i32, ptr %7, align 4, !tbaa !24
  %88 = load ptr, ptr %5, align 8, !tbaa !22
  %89 = getelementptr inbounds nuw %struct.SilenceDetectContext, ptr %88, i32 0, i32 9
  store i32 %87, ptr %89, align 8, !tbaa !55
  %90 = load ptr, ptr %5, align 8, !tbaa !22
  %91 = getelementptr inbounds nuw %struct.SilenceDetectContext, ptr %90, i32 0, i32 10
  %92 = load ptr, ptr %3, align 8, !tbaa !35
  %93 = getelementptr inbounds nuw %struct.AVFilterLink, ptr %92, i32 0, i32 13
  call void @llvm.memcpy.p0.p0.i64(ptr align 4 %91, ptr align 8 %93, i64 8, i1 false), !tbaa.struct !58
  %94 = load ptr, ptr %4, align 8, !tbaa !37
  %95 = getelementptr inbounds nuw %struct.AVFrame, ptr %94, i32 0, i32 9
  %96 = load i64, ptr %95, align 8, !tbaa !59
  %97 = load ptr, ptr %4, align 8, !tbaa !37
  %98 = getelementptr inbounds nuw %struct.AVFrame, ptr %97, i32 0, i32 5
  %99 = load i32, ptr %98, align 8, !tbaa !48
  %100 = sext i32 %99 to i64
  %101 = getelementptr inbounds nuw %struct.AVRational, ptr %11, i32 0, i32 0
  store i32 1, ptr %101, align 4, !tbaa !60
  %102 = getelementptr inbounds nuw %struct.AVRational, ptr %11, i32 0, i32 1
  %103 = load ptr, ptr %5, align 8, !tbaa !22
  %104 = getelementptr inbounds nuw %struct.SilenceDetectContext, ptr %103, i32 0, i32 9
  %105 = load i32, ptr %104, align 8, !tbaa !55
  store i32 %105, ptr %102, align 4, !tbaa !61
  %106 = load ptr, ptr %3, align 8, !tbaa !35
  %107 = getelementptr inbounds nuw %struct.AVFilterLink, ptr %106, i32 0, i32 13
  %108 = load i64, ptr %11, align 4
  %109 = load i64, ptr %107, align 8
  %110 = call i64 @av_rescale_q(i64 noundef %100, i64 %108, i64 %109) #11
  %111 = add nsw i64 %96, %110
  %112 = load ptr, ptr %5, align 8, !tbaa !22
  %113 = getelementptr inbounds nuw %struct.SilenceDetectContext, ptr %112, i32 0, i32 8
  store i64 %111, ptr %113, align 8, !tbaa !62
  %114 = load ptr, ptr %5, align 8, !tbaa !22
  %115 = getelementptr inbounds nuw %struct.SilenceDetectContext, ptr %114, i32 0, i32 11
  %116 = load ptr, ptr %115, align 8, !tbaa !63
  %117 = load ptr, ptr %5, align 8, !tbaa !22
  %118 = load ptr, ptr %4, align 8, !tbaa !37
  %119 = load i32, ptr %8, align 4, !tbaa !24
  %120 = load i64, ptr %9, align 8, !tbaa !32
  %121 = load ptr, ptr %3, align 8, !tbaa !35
  %122 = getelementptr inbounds nuw %struct.AVFilterLink, ptr %121, i32 0, i32 13
  %123 = load i64, ptr %122, align 8
  call void %116(ptr noundef %117, ptr noundef %118, i32 noundef %119, i64 noundef %120, i64 %123)
  %124 = load ptr, ptr %3, align 8, !tbaa !35
  %125 = getelementptr inbounds nuw %struct.AVFilterLink, ptr %124, i32 0, i32 2
  %126 = load ptr, ptr %125, align 8, !tbaa !39
  %127 = getelementptr inbounds nuw %struct.AVFilterContext, ptr %126, i32 0, i32 7
  %128 = load ptr, ptr %127, align 8, !tbaa !64
  %129 = getelementptr inbounds ptr, ptr %128, i64 0
  %130 = load ptr, ptr %129, align 8, !tbaa !35
  %131 = load ptr, ptr %4, align 8, !tbaa !37
  %132 = call i32 @ff_filter_frame(ptr noundef %130, ptr noundef %131)
  call void @llvm.lifetime.end.p0(i64 4, ptr %10) #10
  call void @llvm.lifetime.end.p0(i64 8, ptr %9) #10
  call void @llvm.lifetime.end.p0(i64 4, ptr %8) #10
  call void @llvm.lifetime.end.p0(i64 4, ptr %7) #10
  call void @llvm.lifetime.end.p0(i64 4, ptr %6) #10
  call void @llvm.lifetime.end.p0(i64 8, ptr %5) #10
  ret i32 %132
}