; Function Attrs: nounwind uwtable
define internal i32 @filter_frame(ptr noundef readonly captures(none) %0, ptr noundef %1) #1 {
  %3 = getelementptr inbounds nuw i8, ptr %0, i64 16
  %4 = load ptr, ptr %3, align 8, !tbaa !33
  %5 = getelementptr inbounds nuw i8, ptr %4, i64 72
  %6 = load ptr, ptr %5, align 8, !tbaa !4
  %7 = getelementptr inbounds nuw i8, ptr %0, i64 76
  %8 = load i32, ptr %7, align 4, !tbaa !41
  %9 = getelementptr inbounds nuw i8, ptr %0, i64 64
  %10 = load i32, ptr %9, align 8, !tbaa !42
  %11 = getelementptr inbounds nuw i8, ptr %1, i64 112
  %12 = load i32, ptr %11, align 8, !tbaa !43
  %13 = getelementptr inbounds nuw i8, ptr %6, i64 16
  %14 = load i64, ptr %13, align 8, !tbaa !48
  %15 = getelementptr inbounds nuw i8, ptr %6, i64 24
  %16 = load i32, ptr %15, align 8, !tbaa !29
  %17 = getelementptr inbounds nuw i8, ptr %6, i64 64
  %18 = load i32, ptr %17, align 8, !tbaa !49
  %.not38 = icmp eq i32 %18, 0
  %.not39 = icmp eq i32 %18, %10
  %or.cond = select i1 %.not38, i1 true, i1 %.not39
  br i1 %or.cond, label %.loopexit, label %.preheader

.preheader:                                       ; preds = %2
  %19 = getelementptr inbounds nuw i8, ptr %6, i64 32
  %20 = load i32, ptr %19, align 8, !tbaa !20
  %21 = icmp sgt i32 %20, 0
  br i1 %21, label %.lr.ph, label %.loopexit

.lr.ph:                                           ; preds = %.preheader
  %22 = sext i32 %10 to i64
  %23 = getelementptr inbounds nuw i8, ptr %6, i64 40
  %24 = load ptr, ptr %23, align 8, !tbaa !30
  %25 = sext i32 %18 to i64
  %wide.trip.count = zext nneg i32 %20 to i64
  br label %26

26:                                               ; preds = %.lr.ph, %26
  %indvars.iv = phi i64 [ 0, %.lr.ph ], [ %indvars.iv.next, %26 ]
  %27 = getelementptr inbounds nuw i64, ptr %24, i64 %indvars.iv
  %28 = load i64, ptr %27, align 8, !tbaa !27
  %29 = mul nsw i64 %28, %22
  %30 = sdiv i64 %29, %25
  store i64 %30, ptr %27, align 8, !tbaa !27
  %indvars.iv.next = add nuw nsw i64 %indvars.iv, 1
  %exitcond.not = icmp eq i64 %indvars.iv.next, %wide.trip.count
  br i1 %exitcond.not, label %.loopexit, label %26, !llvm.loop !50

.loopexit:                                        ; preds = %26, %.preheader, %2
  %.not = icmp eq i32 %16, 0
  %31 = select i1 %.not, i32 %8, i32 1
  %32 = sext i32 %31 to i64
  %33 = mul nsw i64 %14, %32
  %34 = mul nsw i32 %12, %8
  store i32 %10, ptr %17, align 8, !tbaa !49
  %35 = getelementptr inbounds nuw i8, ptr %6, i64 68
  %36 = getelementptr inbounds nuw i8, ptr %0, i64 96
  %37 = load i64, ptr %36, align 8
  store i64 %37, ptr %35, align 4
  %38 = getelementptr inbounds nuw i8, ptr %1, i64 136
  %39 = load i64, ptr %38, align 8, !tbaa !51
  %40 = load i32, ptr %11, align 8, !tbaa !43
  %41 = sext i32 %40 to i64
  %.sroa.2.0.insert.ext = zext i32 %10 to i64
  %.sroa.2.0.insert.shift = shl nuw i64 %.sroa.2.0.insert.ext, 32
  %.sroa.0.0.insert.insert = or disjoint i64 %.sroa.2.0.insert.shift, 1
  %42 = load i64, ptr %36, align 8
  %43 = tail call i64 @av_rescale_q(i64 noundef %41, i64 %.sroa.0.0.insert.insert, i64 %42) #8
  %44 = add nsw i64 %43, %39
  %45 = getelementptr inbounds nuw i8, ptr %6, i64 56
  store i64 %44, ptr %45, align 8, !tbaa !28
  %46 = getelementptr inbounds nuw i8, ptr %6, i64 80
  %47 = load ptr, ptr %46, align 8, !tbaa !52
  %48 = load i64, ptr %36, align 8
  tail call void %47(ptr noundef nonnull %6, ptr noundef nonnull %1, i32 noundef %34, i64 noundef %33, i64 %48) #7
  %49 = load ptr, ptr %3, align 8, !tbaa !33
  %50 = getelementptr inbounds nuw i8, ptr %49, i64 56
  %51 = load ptr, ptr %50, align 8, !tbaa !53
  %52 = load ptr, ptr %51, align 8, !tbaa !54
  %53 = tail call i32 @ff_filter_frame(ptr noundef %52, ptr noundef nonnull %1) #7
  ret i32 %53
}